; Function Attrs: nounwind uwtable
define hidden i32 @uv__udp_connect(ptr noundef captures(none) %0, ptr noundef %1, i32 noundef %2) local_unnamed_addr #0 {
  %4 = alloca %union.uv__sockaddr, align 4
  %5 = load i16, ptr %1, align 2
  call void @llvm.lifetime.start.p0(i64 28, ptr nonnull %4) #10
  %6 = getelementptr inbounds nuw i8, ptr %0, i64 176
  %7 = load i32, ptr %6, align 8
  %.not.i = icmp eq i32 %7, -1
  br i1 %.not.i, label %8, label %uv__udp_maybe_deferred_bind.exit.thread16

8:                                                ; preds = %3
  switch i16 %5, label %10 [
    i16 2, label %.split13.i
    i16 10, label %.split.i
  ]

.split13.i:                                       ; preds = %8
  call void @llvm.memset.p0.i64(ptr noundef nonnull align 4 dereferenceable(16) %4, i8 0, i64 16, i1 false)
  store i16 2, ptr %4, align 4
  br label %.sink.split.i

.split.i:                                         ; preds = %8
  call void @llvm.memset.p0.i64(ptr noundef nonnull align 4 dereferenceable(28) %4, i8 0, i64 28, i1 false)
  store i16 10, ptr %4, align 4
  %9 = getelementptr inbounds nuw i8, ptr %4, i64 8
  call void @llvm.memcpy.p0.p0.i64(ptr noundef nonnull align 4 dereferenceable(16) %9, ptr noundef nonnull align 4 dereferenceable(16) @in6addr_any, i64 16, i1 false)
  br label %.sink.split.i

10:                                               ; preds = %8
  tail call void @abort() #12
  unreachable

.sink.split.i:                                    ; preds = %.split13.i, %.split.i
  %.sink.i = phi i32 [ 16, %.split13.i ], [ 28, %.split.i ]
  %11 = zext nneg i16 %5 to i32
  %12 = tail call i32 @uv__socket(i32 noundef %11, i32 noundef 2, i32 noundef 0) #10
  %13 = icmp slt i32 %12, 0
  br i1 %13, label %uv__udp_maybe_deferred_bind.exit.thread, label %14

14:                                               ; preds = %.sink.split.i
  store i32 %12, ptr %6, align 8
  %15 = call i32 @bind(i32 noundef %12, ptr nonnull %4, i32 noundef %.sink.i) #10
  %.not48.i = icmp eq i32 %15, 0
  br i1 %.not48.i, label %._crit_edge.i, label %16

16:                                               ; preds = %14
  %17 = tail call ptr @__errno_location() #11
  %18 = load i32, ptr %17, align 4
  %19 = icmp eq i32 %18, 97
  br i1 %19, label %uv__udp_maybe_deferred_bind.exit.thread, label %uv__udp_maybe_deferred_bind.exit

._crit_edge.i:                                    ; preds = %14
  %20 = load i16, ptr %4, align 4
  %21 = icmp eq i16 %20, 10
  %22 = getelementptr inbounds nuw i8, ptr %0, i64 88
  %23 = load i32, ptr %22, align 8
  %24 = or i32 %23, 4194304
  %25 = select i1 %21, i32 %24, i32 %23
  %26 = or i32 %25, 8192
  store i32 %26, ptr %22, align 8
  br label %uv__udp_maybe_deferred_bind.exit.thread16

uv__udp_maybe_deferred_bind.exit.thread:          ; preds = %.sink.split.i, %16
  %.0.i.ph = phi i32 [ %12, %.sink.split.i ], [ -22, %16 ]
  call void @llvm.lifetime.end.p0(i64 28, ptr nonnull %4) #10
  br label %41

uv__udp_maybe_deferred_bind.exit.thread16:        ; preds = %3, %._crit_edge.i
  call void @llvm.lifetime.end.p0(i64 28, ptr nonnull %4) #10
  br label %.preheader

uv__udp_maybe_deferred_bind.exit:                 ; preds = %16
  %27 = sub nsw i32 0, %18
  call void @llvm.lifetime.end.p0(i64 28, ptr nonnull %4) #10
  %.not = icmp eq i32 %18, 0
  br i1 %.not, label %.preheader, label %41

.preheader:                                       ; preds = %uv__udp_maybe_deferred_bind.exit.thread16, %uv__udp_maybe_deferred_bind.exit
  %28 = tail call ptr @__errno_location() #11
  br label %29

29:                                               ; preds = %.preheader, %32
  store i32 0, ptr %28, align 4
  %30 = load i32, ptr %6, align 8
  %31 = call i32 @connect(i32 noundef %30, ptr nonnull %1, i32 noundef %2) #10
  switch i32 %31, label %..critedge_crit_edge [
    i32 -1, label %32
    i32 0, label %37
  ]

..critedge_crit_edge:                             ; preds = %29
  %.pre = load i32, ptr %28, align 4
  br label %.critedge

32:                                               ; preds = %29
  %33 = load i32, ptr %28, align 4
  %34 = icmp eq i32 %33, 4
  br i1 %34, label %29, label %.critedge

.critedge:                                        ; preds = %32, %..critedge_crit_edge
  %35 = phi i32 [ %.pre, %..critedge_crit_edge ], [ %33, %32 ]
  %36 = sub nsw i32 0, %35
  br label %41

37:                                               ; preds = %29
  %38 = getelementptr inbounds nuw i8, ptr %0, i64 88
  %39 = load i32, ptr %38, align 8
  %40 = or i32 %39, 33554432
  store i32 %40, ptr %38, align 8
  br label %41

41:                                               ; preds = %uv__udp_maybe_deferred_bind.exit.thread, %uv__udp_maybe_deferred_bind.exit, %37, %.critedge
  %.0 = phi i32 [ %36, %.critedge ], [ 0, %37 ], [ %27, %uv__udp_maybe_deferred_bind.exit ], [ %.0.i.ph, %uv__udp_maybe_deferred_bind.exit.thread ]
  ret i32 %.0
}